target datalayout = "e-m:e-p270:32:32-p271:32:32-p272:64:64-i64:64-i128:128-f80:128-n8:16:32:64-S128"
target triple = "x86_64-unknown-linux-gnu"

; Function Attrs: mustprogress nounwind uwtable
define void @_ZN8proxygen15AsyncTimeoutSetD2Ev(ptr noundef nonnull align 8 dereferenceable(249) %this) unnamed_addr #2 align 2 {
entry:
  %this.addr = alloca ptr, align 8
  store ptr %this, ptr %this.addr, align 8
  %this1 = load ptr, ptr %this.addr, align 8
  store ptr getelementptr inbounds ({ [6 x ptr], [6 x ptr] }, ptr @_ZTVN8proxygen15AsyncTimeoutSetE, i32 0, i32 0, i32 2), ptr %this1, align 8
  %add.ptr = getelementptr inbounds i8, ptr %this1, i64 192
  store ptr getelementptr inbounds ({ [6 x ptr], [6 x ptr] }, ptr @_ZTVN8proxygen15AsyncTimeoutSetE, i32 0, i32 1, i32 2), ptr %add.ptr, align 8
  %0 = getelementptr inbounds i8, ptr %this1, i64 192
  call void @_ZN5folly18DelayedDestructionD2Ev(ptr noundef nonnull align 8 dereferenceable(13) %0) #1
  call void @_ZN5folly12AsyncTimeoutD2Ev(ptr noundef nonnull align 8 dereferenceable(192) %this1) #1
  ret void
}