; Function Attrs: mustprogress nounwind uwtable
define void @_ZN8proxygen15AsyncTimeoutSetD2Ev(ptr noundef nonnull align 8 dereferenceable(249) %this) unnamed_addr #2 align 2 {
entry:
  store ptr getelementptr inbounds ({ [6 x ptr], [6 x ptr] }, ptr @_ZTVN8proxygen15AsyncTimeoutSetE, i64 0, i32 0, i64 2), ptr %this, align 8
  %add.ptr = getelementptr inbounds i8, ptr %this, i64 192
  store ptr getelementptr inbounds ({ [6 x ptr], [6 x ptr] }, ptr @_ZTVN8proxygen15AsyncTimeoutSetE, i64 0, i32 1, i64 2), ptr %add.ptr, align 8
  tail call void @_ZN5folly18DelayedDestructionD2Ev(ptr noundef nonnull align 8 dereferenceable(13) %add.ptr) #14
  tail call void @_ZN5folly12AsyncTimeoutD2Ev(ptr noundef nonnull align 8 dereferenceable(192) %this) #14
  ret void
}